; Function Attrs: nounwind uwtable
define void @Java_sun_awt_X11_XlibWrapper_copyIntArray(ptr noundef %0, ptr nocapture noundef readnone %1, i64 noundef %2, ptr noundef %3, i32 noundef %4) local_unnamed_addr #0 {
  %6 = alloca i8, align 1
  store i8 0, ptr %6, align 1
  %7 = load ptr, ptr %0, align 8
  %8 = getelementptr inbounds i8, ptr %7, i64 1496
  %9 = load ptr, ptr %8, align 8
  %10 = call ptr %9(ptr noundef nonnull %0, ptr noundef %3, ptr noundef nonnull %6) #14
  %11 = inttoptr i64 %2 to ptr
  %12 = sext i32 %4 to i64
  call void @llvm.memcpy.p0.p0.i64(ptr align 1 %11, ptr align 4 %10, i64 %12, i1 false)
  %13 = load i8, ptr %6, align 1
  %.not = icmp eq i8 %13, 0
  br i1 %.not, label %18, label %14

14:                                               ; preds = %5
  %15 = load ptr, ptr %0, align 8
  %16 = getelementptr inbounds i8, ptr %15, i64 1560
  %17 = load ptr, ptr %16, align 8
  call void %17(ptr noundef nonnull %0, ptr noundef %3, ptr noundef %10, i32 noundef 2) #14
  br label %18

18:                                               ; preds = %14, %5
  ret void
}